#include <math.h>
#include <stdio.h>
#include <stdlib.h>
#include <string.h>

int main(){
int n,i;
scanf("%d",&n);
int sz1[100],sz2[100];
for(i=0;i<n;i++){
	if(i<n-1){
scanf("%d ",&sz1[i]);
sz2[n-1-i]=sz1[i];
}else if(i==n-1){
	scanf("%d",&sz1[n-1]);
	sz2[0]=sz1[n-1];
	}
}
for(i=0;i<n;i++){
	if(i<n-1){
printf("%d ",sz2[i]);
	}else if(i==n-1){
	printf("%d",sz2[n-1]);
	}

}
return 0;
}